target datalayout = "e-m:e-p270:32:32-p271:32:32-p272:64:64-i64:64-i128:128-f80:128-n8:16:32:64-S128"
target triple = "x86_64-pc-linux-gnu"

%struct.DICTIONARY_ID = type { i64 }
%"class.std::__shared_count" = type { ptr }
%"class.toku::locktree" = type { ptr, %struct.DICTIONARY_ID, i32, [4 x i8], %"class.toku::comparator", ptr, ptr, ptr, ptr, %"struct.toku::lt_lock_request_info", i64, %"class.toku::range_buffer", i32, i64, i64 }
%"class.toku::comparator" = type <{ ptr, ptr, i8, [7 x i8] }>
%"struct.toku::lt_lock_request_info" = type <{ %"class.toku::omt", %"struct.std::atomic", [7 x i8], %"class.std::shared_ptr.0", i8, [7 x i8], %"struct.toku::lt_counters", %"struct.std::atomic.3", i64, %struct.toku_mutex_t, %struct.toku_cond_t, i8, [7 x i8] }>
%"class.toku::omt" = type { i8, i32, %union.anon }
%union.anon = type { %"struct.toku::omt<toku::lock_request *>::omt_array" }
%"struct.toku::omt<toku::lock_request *>::omt_array" = type { i32, i32, ptr }
%"struct.std::atomic" = type { %"struct.std::__atomic_base" }
%"struct.std::__atomic_base" = type { i8 }
%"class.std::shared_ptr.0" = type { %"class.std::__shared_ptr.1" }
%"class.std::__shared_ptr.1" = type { ptr, %"class.std::__shared_count" }
%"struct.toku::lt_counters" = type { i64, i64, i64, i64, i64 }
%"struct.std::atomic.3" = type { %"struct.std::__atomic_base.4" }
%"struct.std::__atomic_base.4" = type { i64 }
%struct.toku_mutex_t = type { %union.pthread_mutex_t, ptr }
%union.pthread_mutex_t = type { %struct.__pthread_mutex_s }
%struct.__pthread_mutex_s = type { i32, i32, i32, i32, i32, i16, i16, %struct.__pthread_internal_list }
%struct.__pthread_internal_list = type { ptr, ptr }
%struct.toku_cond_t = type { %union.pthread_cond_t, ptr }
%union.pthread_cond_t = type { %struct.__pthread_cond_s }
%struct.__pthread_cond_s = type { %union.__atomic_wide_counter, %union.__atomic_wide_counter, [2 x i32], [2 x i32], i32, i32, [2 x i32] }
%union.__atomic_wide_counter = type { i64 }
%"class.toku::range_buffer" = type <{ %class.memarena, i32, [4 x i8] }>
%class.memarena = type { %"struct.memarena::arena_chunk", ptr, i32, i64, i64 }
%"struct.memarena::arena_chunk" = type { ptr, i64, i64 }
%"struct.toku::omt<toku::lock_request *>::omt_tree" = type { %"class.toku::omt_internal::subtree_templated", i32, ptr }
%"class.toku::omt_internal::subtree_templated" = type { i32 }
%"class.toku::omt_internal::omt_node_templated" = type <{ ptr, i32, %"class.toku::omt_internal::subtree_templated", %"class.toku::omt_internal::subtree_templated", [4 x i8] }>

; Function Attrs: inlinehint mustprogress nounwind uwtable
define linkonce_odr noundef i32 @_ZNK4toku12omt_internal17subtree_templatedILb0EE9get_indexEv(ptr noundef nonnull align 4 dereferenceable(4) %0) #4 comdat align 2 {
  %2 = alloca ptr, align 8
  store ptr %0, ptr %2, align 8, !tbaa !177
  %3 = load ptr, ptr %2, align 8
  %4 = getelementptr inbounds nuw %"class.toku::omt_internal::subtree_templated", ptr %3, i32 0, i32 0
  %5 = load i32, ptr %4, align 4, !tbaa !284
  ret i32 %5
}

; Function Attrs: inlinehint mustprogress uwtable
define linkonce_odr noundef zeroext i1 @_ZNK4toku12omt_internal17subtree_templatedILb0EE7is_nullEv(ptr noundef nonnull align 4 dereferenceable(4) %0) #6 comdat align 2 {
  %2 = alloca ptr, align 8
  store ptr %0, ptr %2, align 8, !tbaa !177
  %3 = load ptr, ptr %2, align 8
  %4 = call noundef i32 @_ZNK4toku12omt_internal17subtree_templatedILb0EE9get_indexEv(ptr noundef nonnull align 4 dereferenceable(4) %3)
  %5 = icmp eq i32 -1, %4
  ret i1 %5
}

; Function Attrs: mustprogress uwtable
define linkonce_odr noundef i32 @_ZNK4toku3omtIPNS_12lock_requestES2_Lb0EE7nweightERKNS_12omt_internal17subtree_templatedILb0EEE(ptr noundef nonnull align 8 dereferenceable(24) %0, ptr noundef nonnull align 4 dereferenceable(4) %1) #0 comdat align 2 {
  %3 = alloca i32, align 4
  %4 = alloca ptr, align 8
  %5 = alloca ptr, align 8
  store ptr %0, ptr %4, align 8, !tbaa !63
  store ptr %1, ptr %5, align 8, !tbaa !177
  %6 = load ptr, ptr %4, align 8
  %7 = load ptr, ptr %5, align 8, !tbaa !177
  %8 = call noundef zeroext i1 @_ZNK4toku12omt_internal17subtree_templatedILb0EE7is_nullEv(ptr noundef nonnull align 4 dereferenceable(4) %7)
  br i1 %8, label %9, label %10

9:                                                ; preds = %2
  store i32 0, ptr %3, align 4
  br label %20

10:                                               ; preds = %2
  %11 = getelementptr inbounds nuw %"class.toku::omt", ptr %6, i32 0, i32 2
  %12 = getelementptr inbounds nuw %"struct.toku::omt<toku::lock_request *>::omt_tree", ptr %11, i32 0, i32 2
  %13 = load ptr, ptr %12, align 8, !tbaa !85
  %14 = load ptr, ptr %5, align 8, !tbaa !177
  %15 = call noundef i32 @_ZNK4toku12omt_internal17subtree_templatedILb0EE9get_indexEv(ptr noundef nonnull align 4 dereferenceable(4) %14)
  %16 = zext i32 %15 to i64
  %17 = getelementptr inbounds nuw %"class.toku::omt_internal::omt_node_templated", ptr %13, i64 %16
  %18 = getelementptr inbounds nuw %"class.toku::omt_internal::omt_node_templated", ptr %17, i32 0, i32 1
  %19 = load i32, ptr %18, align 8, !tbaa !280
  store i32 %19, ptr %3, align 4
  br label %20

20:                                               ; preds = %10, %9
  %21 = load i32, ptr %3, align 4
  ret i32 %21
}

; Function Attrs: mustprogress nounwind uwtable
define linkonce_odr void @_ZN4toku10comparator7destroyEv(ptr noundef nonnull align 8 dereferenceable(17) %0) #5 comdat align 2 {
  %2 = alloca ptr, align 8
  store ptr %0, ptr %2, align 8, !tbaa !11
  ret void
}

; Function Attrs: mustprogress uwtable
define linkonce_odr noundef i32 @_ZNK4toku3omtIPNS_12lock_requestES2_Lb0EE4sizeEv(ptr noundef nonnull align 8 dereferenceable(24) %0) #0 comdat align 2 {
  %2 = alloca i32, align 4
  %3 = alloca ptr, align 8
  store ptr %0, ptr %3, align 8, !tbaa !63
  %4 = load ptr, ptr %3, align 8
  %5 = getelementptr inbounds nuw %"class.toku::omt", ptr %4, i32 0, i32 0
  %6 = load i8, ptr %5, align 8, !tbaa !84, !range !68, !noundef !69
  %7 = trunc i8 %6 to i1
  br i1 %7, label %8, label %12

8:                                                ; preds = %1
  %9 = getelementptr inbounds nuw %"class.toku::omt", ptr %4, i32 0, i32 2
  %10 = getelementptr inbounds nuw %"struct.toku::omt<toku::lock_request *>::omt_array", ptr %9, i32 0, i32 1
  %11 = load i32, ptr %10, align 4, !tbaa !85
  store i32 %11, ptr %2, align 4
  br label %16

12:                                               ; preds = %1
  %13 = getelementptr inbounds nuw %"class.toku::omt", ptr %4, i32 0, i32 2
  %14 = getelementptr inbounds nuw %"struct.toku::omt<toku::lock_request *>::omt_tree", ptr %13, i32 0, i32 0
  %15 = call noundef i32 @_ZNK4toku3omtIPNS_12lock_requestES2_Lb0EE7nweightERKNS_12omt_internal17subtree_templatedILb0EEE(ptr noundef nonnull align 8 dereferenceable(24) %4, ptr noundef nonnull align 4 dereferenceable(4) %14)
  store i32 %15, ptr %2, align 4
  br label %16

16:                                               ; preds = %12, %8
  %17 = load i32, ptr %2, align 4
  ret i32 %17
}

; Function Attrs: mustprogress uwtable
define void @_ZN4toku8locktree7destroyEv(ptr noundef nonnull align 8 dereferenceable(400) %0) #0 align 2 {
  %2 = alloca ptr, align 8
  store ptr %0, ptr %2, align 8, !tbaa !4
  %3 = load ptr, ptr %2, align 8
  %4 = getelementptr inbounds nuw %"class.toku::locktree", ptr %3, i32 0, i32 9
  %5 = getelementptr inbounds nuw %"struct.toku::lt_lock_request_info", ptr %4, i32 0, i32 0
  %6 = call noundef i32 @_ZNK4toku3omtIPNS_12lock_requestES2_Lb0EE4sizeEv(ptr noundef nonnull align 8 dereferenceable(24) %5)
  %7 = getelementptr inbounds nuw %"class.toku::locktree", ptr %3, i32 0, i32 4
  call void @_ZN4toku10comparator7destroyEv(ptr noundef nonnull align 8 dereferenceable(17) %7)
  %8 = getelementptr inbounds nuw %"class.toku::locktree", ptr %3, i32 0, i32 7
  %9 = load ptr, ptr %8, align 8, !tbaa !49
  call void @_ZN4toku15concurrent_tree7destroyEv(ptr noundef nonnull align 8 dereferenceable(208) %9)
  %10 = getelementptr inbounds nuw %"class.toku::locktree", ptr %3, i32 0, i32 7
  %11 = load ptr, ptr %10, align 8, !tbaa !49
  call void @_Z9toku_freePv(ptr noundef %11)
  %12 = getelementptr inbounds nuw %"class.toku::locktree", ptr %3, i32 0, i32 11
  call void @_ZN4toku12range_buffer7destroyEv(ptr noundef nonnull align 8 dereferenceable(60) %12)
  %13 = getelementptr inbounds nuw %"class.toku::locktree", ptr %3, i32 0, i32 9
  call void @_ZN4toku20lt_lock_request_info7destroyEv(ptr noundef nonnull align 8 dereferenceable(217) %13)
  ret void
}