; Function Attrs: mustprogress uwtable
define void @_ZN4toku8locktree7destroyEv(ptr noundef nonnull align 8 dereferenceable(400) %0) local_unnamed_addr #0 align 2 {
_ZNK4toku3omtIPNS_12lock_requestES2_Lb0EE4sizeEv.exit:
  %1 = getelementptr inbounds nuw i8, ptr %0, i64 80
  %2 = getelementptr inbounds nuw i8, ptr %0, i64 64
  %3 = load ptr, ptr %2, align 8, !tbaa !44
  tail call void @_ZN4toku15concurrent_tree7destroyEv(ptr noundef nonnull align 8 dereferenceable(208) %3)
  %4 = load ptr, ptr %2, align 8, !tbaa !44
  tail call void @_Z9toku_freePv(ptr noundef %4)
  %5 = getelementptr inbounds nuw i8, ptr %0, i64 312
  tail call void @_ZN4toku12range_buffer7destroyEv(ptr noundef nonnull align 8 dereferenceable(60) %5)
  tail call void @_ZN4toku20lt_lock_request_info7destroyEv(ptr noundef nonnull align 8 dereferenceable(217) %1)
  ret void
}